; Function Attrs: mustprogress uwtable
define noundef float @_ZNK18OpenImageIO_v2_6_09ImageSpec19get_float_attributeENS_17basic_string_viewIcSt11char_traitsIcEEEf(ptr noundef nonnull align 8 dereferenceable(160) %this, ptr nocapture noundef readonly %name, float noundef %defaultval) local_unnamed_addr #5 align 2 {
entry:
  %agg.tmp = alloca %"class.OpenImageIO_v2_6_0::basic_string_view", align 8
  %extra_attribs = getelementptr inbounds i8, ptr %this, i64 136
  %0 = load ptr, ptr %name, align 8
  store ptr %0, ptr %agg.tmp, align 8
  %m_len.i = getelementptr inbounds i8, ptr %agg.tmp, i64 8
  %m_len.i.i = getelementptr inbounds i8, ptr %name, i64 8
  %1 = load i64, ptr %m_len.i.i, align 8
  store i64 %1, ptr %m_len.i, align 8
  %call = call noundef float @_ZNK18OpenImageIO_v2_6_014ParamValueList9get_floatENS_17basic_string_viewIcSt11char_traitsIcEEEfbb(ptr noundef nonnull align 8 dereferenceable(24) %extra_attribs, ptr noundef nonnull %agg.tmp, float noundef %defaultval, i1 noundef zeroext false, i1 noundef zeroext true)
  ret float %call
}